target datalayout = "e-m:e-p270:32:32-p271:32:32-p272:64:64-i64:64-i128:128-f80:128-n8:16:32:64-S128"
target triple = "x86_64-pc-linux-gnu"

%"class.datalog::rule_transformer" = type { ptr, ptr, i8, %class.svector }
%class.svector = type { %class.vector }
%class.vector = type { ptr }
%"struct.__gnu_cxx::__ops::_Iter_comp_iter" = type { i8 }

; Function Attrs: inlinehint mustprogress nounwind uwtable
define linkonce_odr noundef i64 @_ZSt4__lgl(i64 noundef %0) #9 comdat {
  %2 = alloca i64, align 8
  store i64 %0, ptr %2, align 8, !tbaa !253
  %3 = load i64, ptr %2, align 8, !tbaa !253
  %4 = call i64 @llvm.ctlz.i64(i64 %3, i1 true)
  %5 = trunc i64 %4 to i32
  %6 = sub nsw i32 63, %5
  %7 = sext i32 %6 to i64
  ret i64 %7
}

; Function Attrs: mustprogress nounwind uwtable
define linkonce_odr hidden void @_ZN9__gnu_cxx5__ops15_Iter_comp_iterIN7datalog16rule_transformer17plugin_comparatorEEC2ES4_(ptr noundef nonnull align 1 dereferenceable(1) %0) unnamed_addr #5 comdat align 2 {
  %2 = alloca ptr, align 8
  store ptr %0, ptr %2, align 8, !tbaa !288
  ret void
}

; Function Attrs: inlinehint mustprogress uwtable
define linkonce_odr hidden void @_ZSt6__sortIPPN7datalog16rule_transformer6pluginEN9__gnu_cxx5__ops15_Iter_comp_iterINS1_17plugin_comparatorEEEEvT_SA_T0_(ptr noundef %0, ptr noundef %1) #8 comdat {
  %3 = alloca %"struct.__gnu_cxx::__ops::_Iter_comp_iter", align 1
  %4 = alloca ptr, align 8
  %5 = alloca ptr, align 8
  %6 = alloca %"struct.__gnu_cxx::__ops::_Iter_comp_iter", align 1
  %7 = alloca %"struct.__gnu_cxx::__ops::_Iter_comp_iter", align 1
  store ptr %0, ptr %4, align 8, !tbaa !22
  store ptr %1, ptr %5, align 8, !tbaa !22
  %8 = load ptr, ptr %4, align 8, !tbaa !22
  %9 = load ptr, ptr %5, align 8, !tbaa !22
  %10 = icmp ne ptr %8, %9
  br i1 %10, label %11, label %24

11:                                               ; preds = %2
  %12 = load ptr, ptr %4, align 8, !tbaa !22
  %13 = load ptr, ptr %5, align 8, !tbaa !22
  %14 = load ptr, ptr %5, align 8, !tbaa !22
  %15 = load ptr, ptr %4, align 8, !tbaa !22
  %16 = ptrtoint ptr %14 to i64
  %17 = ptrtoint ptr %15 to i64
  %18 = sub i64 %16, %17
  %19 = sdiv exact i64 %18, 8
  %20 = call noundef i64 @_ZSt4__lgl(i64 noundef %19)
  %21 = mul nsw i64 %20, 2
  call void @llvm.memcpy.p0.p0.i64(ptr align 1 %6, ptr align 1 %3, i64 1, i1 false), !tbaa.struct !33
  call void @_ZSt16__introsort_loopIPPN7datalog16rule_transformer6pluginElN9__gnu_cxx5__ops15_Iter_comp_iterINS1_17plugin_comparatorEEEEvT_SA_T0_T1_(ptr noundef %12, ptr noundef %13, i64 noundef %21)
  %22 = load ptr, ptr %4, align 8, !tbaa !22
  %23 = load ptr, ptr %5, align 8, !tbaa !22
  call void @llvm.memcpy.p0.p0.i64(ptr align 1 %7, ptr align 1 %3, i64 1, i1 false), !tbaa.struct !33
  call void @_ZSt22__final_insertion_sortIPPN7datalog16rule_transformer6pluginEN9__gnu_cxx5__ops15_Iter_comp_iterINS1_17plugin_comparatorEEEEvT_SA_T0_(ptr noundef %22, ptr noundef %23)
  br label %24

24:                                               ; preds = %11, %2
  ret void
}

; Function Attrs: inlinehint mustprogress uwtable
define linkonce_odr hidden void @_ZN9__gnu_cxx5__ops16__iter_comp_iterIN7datalog16rule_transformer17plugin_comparatorEEENS0_15_Iter_comp_iterIT_EES6_() #8 comdat {
  %1 = alloca %"struct.__gnu_cxx::__ops::_Iter_comp_iter", align 1
  call void @_ZN9__gnu_cxx5__ops15_Iter_comp_iterIN7datalog16rule_transformer17plugin_comparatorEEC2ES4_(ptr noundef nonnull align 1 dereferenceable(1) %1)
  ret void
}

; Function Attrs: mustprogress nounwind uwtable
define linkonce_odr hidden noundef i32 @_ZNK6vectorIPN7datalog16rule_transformer6pluginELb0EjE4sizeEv(ptr noundef nonnull align 8 dereferenceable(8) %0) #5 comdat align 2 {
  %2 = alloca i32, align 4
  %3 = alloca ptr, align 8
  store ptr %0, ptr %3, align 8, !tbaa !25
  %4 = load ptr, ptr %3, align 8
  %5 = getelementptr inbounds nuw %class.vector, ptr %4, i32 0, i32 0
  %6 = load ptr, ptr %5, align 8, !tbaa !27
  %7 = icmp eq ptr %6, null
  br i1 %7, label %8, label %9

8:                                                ; preds = %1
  store i32 0, ptr %2, align 4
  br label %14

9:                                                ; preds = %1
  %10 = getelementptr inbounds nuw %class.vector, ptr %4, i32 0, i32 0
  %11 = load ptr, ptr %10, align 8, !tbaa !27
  %12 = getelementptr inbounds i32, ptr %11, i64 -1
  %13 = load i32, ptr %12, align 4, !tbaa !30
  store i32 %13, ptr %2, align 4
  br label %14

14:                                               ; preds = %9, %8
  %15 = load i32, ptr %2, align 4
  ret i32 %15
}

; Function Attrs: inlinehint mustprogress uwtable
define linkonce_odr hidden void @_ZSt4sortIPPN7datalog16rule_transformer6pluginENS1_17plugin_comparatorEEvT_S6_T0_(ptr noundef %0, ptr noundef %1) #8 comdat {
  %3 = alloca ptr, align 8
  %4 = alloca ptr, align 8
  store ptr %0, ptr %3, align 8, !tbaa !22
  store ptr %1, ptr %4, align 8, !tbaa !22
  %5 = load ptr, ptr %3, align 8, !tbaa !22
  %6 = load ptr, ptr %4, align 8, !tbaa !22
  call void @_ZN9__gnu_cxx5__ops16__iter_comp_iterIN7datalog16rule_transformer17plugin_comparatorEEENS0_15_Iter_comp_iterIT_EES6_()
  call void @_ZSt6__sortIPPN7datalog16rule_transformer6pluginEN9__gnu_cxx5__ops15_Iter_comp_iterINS1_17plugin_comparatorEEEEvT_SA_T0_(ptr noundef %5, ptr noundef %6)
  ret void
}

; Function Attrs: mustprogress uwtable
define linkonce_odr hidden noundef ptr @_ZN6vectorIPN7datalog16rule_transformer6pluginELb0EjE3endEv(ptr noundef nonnull align 8 dereferenceable(8) %0) #4 comdat align 2 {
  %2 = alloca ptr, align 8
  store ptr %0, ptr %2, align 8, !tbaa !25
  %3 = load ptr, ptr %2, align 8
  %4 = getelementptr inbounds nuw %class.vector, ptr %3, i32 0, i32 0
  %5 = load ptr, ptr %4, align 8, !tbaa !27
  %6 = call noundef i32 @_ZNK6vectorIPN7datalog16rule_transformer6pluginELb0EjE4sizeEv(ptr noundef nonnull align 8 dereferenceable(8) %3)
  %7 = zext i32 %6 to i64
  %8 = getelementptr inbounds nuw ptr, ptr %5, i64 %7
  ret ptr %8
}

; Function Attrs: mustprogress nounwind uwtable
define linkonce_odr hidden noundef ptr @_ZN6vectorIPN7datalog16rule_transformer6pluginELb0EjE5beginEv(ptr noundef nonnull align 8 dereferenceable(8) %0) #5 comdat align 2 {
  %2 = alloca ptr, align 8
  store ptr %0, ptr %2, align 8, !tbaa !25
  %3 = load ptr, ptr %2, align 8
  %4 = getelementptr inbounds nuw %class.vector, ptr %3, i32 0, i32 0
  %5 = load ptr, ptr %4, align 8, !tbaa !27
  ret ptr %5
}

; Function Attrs: mustprogress uwtable
define hidden void @_ZN7datalog16rule_transformer14ensure_orderedEv(ptr noundef nonnull align 8 dereferenceable(32) %0) #4 align 2 {
  %2 = alloca ptr, align 8
  store ptr %0, ptr %2, align 8, !tbaa !3
  %3 = load ptr, ptr %2, align 8
  %4 = getelementptr inbounds nuw %"class.datalog::rule_transformer", ptr %3, i32 0, i32 2
  %5 = load i8, ptr %4, align 8, !tbaa !19, !range !32, !noundef !33
  %6 = trunc i8 %5 to i1
  br i1 %6, label %7, label %13

7:                                                ; preds = %1
  %8 = getelementptr inbounds nuw %"class.datalog::rule_transformer", ptr %3, i32 0, i32 3
  %9 = call noundef ptr @_ZN6vectorIPN7datalog16rule_transformer6pluginELb0EjE5beginEv(ptr noundef nonnull align 8 dereferenceable(8) %8)
  %10 = getelementptr inbounds nuw %"class.datalog::rule_transformer", ptr %3, i32 0, i32 3
  %11 = call noundef ptr @_ZN6vectorIPN7datalog16rule_transformer6pluginELb0EjE3endEv(ptr noundef nonnull align 8 dereferenceable(8) %10)
  call void @_ZSt4sortIPPN7datalog16rule_transformer6pluginENS1_17plugin_comparatorEEvT_S6_T0_(ptr noundef %9, ptr noundef %11)
  %12 = getelementptr inbounds nuw %"class.datalog::rule_transformer", ptr %3, i32 0, i32 2
  store i8 0, ptr %12, align 8, !tbaa !19
  br label %13

13:                                               ; preds = %7, %1
  ret void
}