; Function Attrs: mustprogress uwtable
define hidden void @_ZN7datalog16rule_transformer14ensure_orderedEv(ptr noundef nonnull align 8 captures(none) dereferenceable(32) %0) local_unnamed_addr #5 align 2 {
  %2 = getelementptr inbounds nuw i8, ptr %0, i64 16
  %3 = load i8, ptr %2, align 8, !tbaa !10, !range !24, !noundef !25
  %4 = trunc nuw i8 %3 to i1
  br i1 %4, label %5, label %17

5:                                                ; preds = %1
  %6 = getelementptr inbounds nuw i8, ptr %0, i64 24
  %7 = load ptr, ptr %6, align 8, !tbaa !17
  %8 = icmp eq ptr %7, null
  br i1 %8, label %_ZSt4sortIPPN7datalog16rule_transformer6pluginENS1_17plugin_comparatorEEvT_S6_T0_.exit, label %_ZN6vectorIPN7datalog16rule_transformer6pluginELb0EjE3endEv.exit

_ZN6vectorIPN7datalog16rule_transformer6pluginELb0EjE3endEv.exit: ; preds = %5
  %9 = getelementptr inbounds i8, ptr %7, i64 -4
  %10 = load i32, ptr %9, align 4, !tbaa !18
  %.not.i.i = icmp eq i32 %10, 0
  br i1 %.not.i.i, label %_ZSt4sortIPPN7datalog16rule_transformer6pluginENS1_17plugin_comparatorEEvT_S6_T0_.exit, label %11

11:                                               ; preds = %_ZN6vectorIPN7datalog16rule_transformer6pluginELb0EjE3endEv.exit
  %12 = zext i32 %10 to i64
  %13 = getelementptr inbounds nuw ptr, ptr %7, i64 %12
  %14 = tail call range(i64 0, 65) i64 @llvm.ctlz.i64(i64 %12, i1 true)
  %15 = shl nuw nsw i64 %14, 1
  %16 = xor i64 %15, 126
  tail call void @_ZSt16__introsort_loopIPPN7datalog16rule_transformer6pluginElN9__gnu_cxx5__ops15_Iter_comp_iterINS1_17plugin_comparatorEEEEvT_SA_T0_T1_(ptr noundef nonnull %7, ptr noundef nonnull %13, i64 noundef %16)
  tail call void @_ZSt22__final_insertion_sortIPPN7datalog16rule_transformer6pluginEN9__gnu_cxx5__ops15_Iter_comp_iterINS1_17plugin_comparatorEEEEvT_SA_T0_(ptr noundef nonnull %7, ptr noundef nonnull %13)
  br label %_ZSt4sortIPPN7datalog16rule_transformer6pluginENS1_17plugin_comparatorEEvT_S6_T0_.exit

_ZSt4sortIPPN7datalog16rule_transformer6pluginENS1_17plugin_comparatorEEvT_S6_T0_.exit: ; preds = %5, %_ZN6vectorIPN7datalog16rule_transformer6pluginELb0EjE3endEv.exit, %11
  store i8 0, ptr %2, align 8, !tbaa !10
  br label %17

17:                                               ; preds = %_ZSt4sortIPPN7datalog16rule_transformer6pluginENS1_17plugin_comparatorEEvT_S6_T0_.exit, %1
  ret void
}